; Function Attrs: mustprogress nounwind uwtable
define internal fastcc void @_ZN9grpc_core12_GLOBAL__N_122InternalFilterChainMap13DestinationIpD2Ev(ptr noundef nonnull align 8 dereferenceable(288) %this) unnamed_addr #4 align 2 personality ptr @__gxx_personality_v0 {
entry:
  %invariant.gep = getelementptr i8, ptr %this, i64 -32
  br label %arraydestroy.body.i

arraydestroy.body.i:                              ; preds = %_ZNSt3mapINSt7__cxx1112basic_stringIcSt11char_traitsIcESaIcEEEN9grpc_core19XdsListenerResource14FilterChainMap8SourceIpESt4lessIS5_ESaISt4pairIKS5_S9_EEED2Ev.exit.i, %entry
  %arraydestroy.elementPast.i.idx = phi i64 [ 288, %entry ], [ %arraydestroy.elementPast.i.add, %_ZNSt3mapINSt7__cxx1112basic_stringIcSt11char_traitsIcESaIcEEEN9grpc_core19XdsListenerResource14FilterChainMap8SourceIpESt4lessIS5_ESaISt4pairIKS5_S9_EEED2Ev.exit.i ]
  %arraydestroy.elementPast.i.add = add nsw i64 %arraydestroy.elementPast.i.idx, -48
  %arraydestroy.element.i.ptr = getelementptr inbounds i8, ptr %this, i64 %arraydestroy.elementPast.i.add
  %gep = getelementptr i8, ptr %invariant.gep, i64 %arraydestroy.elementPast.i.idx
  %0 = load ptr, ptr %gep, align 8
  invoke void @_ZNSt8_Rb_treeINSt7__cxx1112basic_stringIcSt11char_traitsIcESaIcEEESt4pairIKS5_N9grpc_core19XdsListenerResource14FilterChainMap8SourceIpEESt10_Select1stISC_ESt4lessIS5_ESaISC_EE8_M_eraseEPSt13_Rb_tree_nodeISC_E(ptr noundef nonnull align 8 dereferenceable(48) %arraydestroy.element.i.ptr, ptr noundef %0)
          to label %_ZNSt3mapINSt7__cxx1112basic_stringIcSt11char_traitsIcESaIcEEEN9grpc_core19XdsListenerResource14FilterChainMap8SourceIpESt4lessIS5_ESaISt4pairIKS5_S9_EEED2Ev.exit.i unwind label %terminate.lpad.i.i.i

terminate.lpad.i.i.i:                             ; preds = %arraydestroy.body.i
  %1 = landingpad { ptr, i32 }
          catch ptr null
  %2 = extractvalue { ptr, i32 } %1, 0
  tail call void @__clang_call_terminate(ptr %2) #23
  unreachable

_ZNSt3mapINSt7__cxx1112basic_stringIcSt11char_traitsIcESaIcEEEN9grpc_core19XdsListenerResource14FilterChainMap8SourceIpESt4lessIS5_ESaISt4pairIKS5_S9_EEED2Ev.exit.i: ; preds = %arraydestroy.body.i
  %arraydestroy.done.i = icmp eq i64 %arraydestroy.elementPast.i.add, 144
  br i1 %arraydestroy.done.i, label %_ZNSt5arrayISt3mapINSt7__cxx1112basic_stringIcSt11char_traitsIcESaIcEEEN9grpc_core19XdsListenerResource14FilterChainMap8SourceIpESt4lessIS6_ESaISt4pairIKS6_SA_EEELm3EED2Ev.exit, label %arraydestroy.body.i

_ZNSt5arrayISt3mapINSt7__cxx1112basic_stringIcSt11char_traitsIcESaIcEEEN9grpc_core19XdsListenerResource14FilterChainMap8SourceIpESt4lessIS6_ESaISt4pairIKS6_SA_EEELm3EED2Ev.exit: ; preds = %_ZNSt3mapINSt7__cxx1112basic_stringIcSt11char_traitsIcESaIcEEEN9grpc_core19XdsListenerResource14FilterChainMap8SourceIpESt4lessIS5_ESaISt4pairIKS5_S9_EEED2Ev.exit.i
  ret void
}